; Function Attrs: mustprogress nounwind uwtable
define hidden void @_ZNK11ConstMethod14print_value_onEP12outputStream(ptr nocapture noundef nonnull readonly align 8 dereferenceable(52) %0, ptr noundef nonnull %1) local_unnamed_addr #0 align 2 {
  tail call void (ptr, ptr, ...) @_ZN12outputStream5printEPKcz(ptr noundef nonnull align 8 dereferenceable(56) %1, ptr noundef nonnull @.str.8) #14
  %3 = getelementptr inbounds i8, ptr %0, i64 8
  %4 = load ptr, ptr %3, align 8
  %5 = getelementptr inbounds i8, ptr %4, i64 24
  %6 = load ptr, ptr %5, align 8
  %7 = getelementptr inbounds i8, ptr %0, i64 40
  %8 = load i16, ptr %7, align 8
  %9 = zext i16 %8 to i32
  %10 = tail call noundef ptr @_ZN13InstanceKlass17method_with_idnumEi(ptr noundef nonnull align 8 dereferenceable(464) %6, i32 noundef %9) #14
  %.not = icmp eq ptr %10, null
  br i1 %.not, label %15, label %11

11:                                               ; preds = %2
  %12 = load ptr, ptr %10, align 8
  %13 = getelementptr inbounds i8, ptr %12, i64 88
  %14 = load ptr, ptr %13, align 8
  tail call void %14(ptr noundef nonnull align 8 dereferenceable(88) %10, ptr noundef nonnull %1) #14
  br label %16

15:                                               ; preds = %2
  tail call void (ptr, ptr, ...) @_ZN12outputStream5printEPKcz(ptr noundef nonnull align 8 dereferenceable(56) %1, ptr noundef nonnull @.str.9) #14
  br label %16

16:                                               ; preds = %15, %11
  ret void
}